; Function Attrs: mustprogress nounwind uwtable
define hidden noundef ptr @_ZN15ciInstanceKlass6loaderEv(ptr nocapture noundef nonnull readonly align 8 dereferenceable(144) %0) unnamed_addr #0 align 2 {
  %2 = getelementptr inbounds i8, ptr %0, i64 48
  %3 = load ptr, ptr %2, align 8
  %.not.i = icmp eq ptr %3, null
  br i1 %.not.i, label %_ZN10JNIHandles7resolveEP8_jobject.exit, label %4

4:                                                ; preds = %1
  %5 = ptrtoint ptr %3 to i64
  %6 = and i64 %5, 3
  switch i64 %6, label %15 [
    i64 1, label %7
    i64 2, label %11
  ]

7:                                                ; preds = %4
  %8 = getelementptr inbounds i8, ptr %3, i64 -1
  %9 = load ptr, ptr @_ZN14AccessInternal15RuntimeDispatchILm598084EP7oopDescLNS_11BarrierTypeE2EE10_load_funcE, align 8
  %10 = tail call noundef ptr %9(ptr noundef nonnull %8) #11
  br label %_ZN10JNIHandles7resolveEP8_jobject.exit

11:                                               ; preds = %4
  %12 = getelementptr inbounds i8, ptr %3, i64 -2
  %13 = load ptr, ptr @_ZN14AccessInternal15RuntimeDispatchILm548932EP7oopDescLNS_11BarrierTypeE2EE10_load_funcE, align 8
  %14 = tail call noundef ptr %13(ptr noundef nonnull %12) #11
  br label %_ZN10JNIHandles7resolveEP8_jobject.exit

15:                                               ; preds = %4
  %16 = load ptr, ptr %3, align 8
  br label %_ZN10JNIHandles7resolveEP8_jobject.exit

_ZN10JNIHandles7resolveEP8_jobject.exit:          ; preds = %1, %7, %11, %15
  %.0.i = phi ptr [ null, %1 ], [ %10, %7 ], [ %14, %11 ], [ %16, %15 ]
  ret ptr %.0.i
}